target datalayout = "e-m:e-p270:32:32-p271:32:32-p272:64:64-i64:64-i128:128-f80:128-n8:16:32:64-S128"
target triple = "x86_64-pc-linux-gnu"

%struct.fec_packet_data = type { i8 }
%struct.fec_data_exchange = type { i8 }
%struct._packet_info = type { ptr, ptr, i32, i32, %struct.nstime_t, %struct.nstime_t, %struct.nstime_t, i8, ptr, ptr, ptr, ptr, %struct._address, %struct._address, %struct._address, %struct._address, %struct._address, %struct._address, i32, ptr, i8, [3 x i8], %struct.anon, i32, i32, i32, i32, ptr, i8, ptr, ptr, i16, i16, i32, i32, i16, i32, i32, ptr, ptr, ptr, i8, i8, i16, i16, i16, i32, i16, i16, ptr, ptr, ptr, ptr, ptr, i32, i32 }
%struct.nstime_t = type { i64, i32 }
%struct._address = type { i32, i32, ptr, ptr }
%struct.anon = type { i8, [3 x i8] }

@proto_rmt_fec = internal global i32 0, align 4
@hf_instance_id = internal global i32 0, align 4
@hf_encoding_id = internal global i32 0, align 4
@hf_sbn = internal global i32 0, align 4
@hf_sbn_with_mask = internal global i32 0, align 4
@hf_sbl = internal global i32 0, align 4
@hf_esi = internal global i32 0, align 4
@hf_esi_with_mask = internal global i32 0, align 4
@ett_main = internal global i32 0, align 4
@.str.39 = private unnamed_addr constant [2 x i8] c" \00", align 1
@.str.40 = private unnamed_addr constant [8 x i8] c"SBN: %u\00", align 1
@.str.41 = private unnamed_addr constant [10 x i8] c"ESI: 0x%X\00", align 1

; Function Attrs: null_pointer_is_valid sspstrong uwtable
define internal i32 @dissect_fec(ptr noundef %0, ptr noundef %1, ptr noundef %2, ptr noundef %3) #0 {
  %5 = alloca ptr, align 8
  %6 = alloca ptr, align 8
  %7 = alloca ptr, align 8
  %8 = alloca ptr, align 8
  %9 = alloca ptr, align 8
  %10 = alloca ptr, align 8
  %11 = alloca i32, align 4
  %12 = alloca ptr, align 8
  %13 = alloca i8, align 1
  %14 = alloca ptr, align 8
  store ptr %0, ptr %5, align 8
  store ptr %1, ptr %6, align 8
  store ptr %2, ptr %7, align 8
  store ptr %3, ptr %8, align 8
  call void @llvm.lifetime.start.p0(i64 8, ptr %9) #4
  call void @llvm.lifetime.start.p0(i64 8, ptr %10) #4
  call void @llvm.lifetime.start.p0(i64 4, ptr %11) #4
  store i32 0, ptr %11, align 4
  call void @llvm.lifetime.start.p0(i64 8, ptr %12) #4
  %15 = load ptr, ptr %8, align 8
  store ptr %15, ptr %12, align 8
  call void @llvm.lifetime.start.p0(i64 1, ptr %13) #4
  store i8 0, ptr %13, align 1
  call void @llvm.lifetime.start.p0(i64 8, ptr %14) #4
  %16 = call ptr @wmem_file_scope()
  %17 = load ptr, ptr %6, align 8
  %18 = load i32, ptr @proto_rmt_fec, align 4
  %19 = call ptr @p_get_proto_data(ptr noundef %16, ptr noundef %17, i32 noundef %18, i32 noundef 0)
  store ptr %19, ptr %14, align 8
  %20 = load ptr, ptr %12, align 8
  %21 = icmp ne ptr %20, null
  br i1 %21, label %22, label %26

22:                                               ; preds = %4
  %23 = load ptr, ptr %12, align 8
  %24 = getelementptr inbounds nuw %struct.fec_data_exchange, ptr %23, i32 0, i32 0
  %25 = load i8, ptr %24, align 1
  store i8 %25, ptr %13, align 1
  br label %26

26:                                               ; preds = %22, %4
  %27 = load ptr, ptr %7, align 8
  %28 = load i32, ptr @proto_rmt_fec, align 4
  %29 = load ptr, ptr %5, align 8
  %30 = load i32, ptr %11, align 4
  %31 = call ptr @proto_tree_add_item(ptr noundef %27, i32 noundef %28, ptr noundef %29, i32 noundef %30, i32 noundef -1, i32 noundef 0)
  store ptr %31, ptr %9, align 8
  %32 = load ptr, ptr %9, align 8
  %33 = load i32, ptr @ett_main, align 4
  %34 = call ptr @proto_item_add_subtree(ptr noundef %32, i32 noundef %33)
  store ptr %34, ptr %10, align 8
  %35 = load ptr, ptr %10, align 8
  %36 = load i32, ptr @hf_encoding_id, align 4
  %37 = load ptr, ptr %5, align 8
  %38 = load i32, ptr %11, align 4
  %39 = load i8, ptr %13, align 1
  %40 = zext i8 %39 to i32
  %41 = call ptr @proto_tree_add_uint(ptr noundef %35, i32 noundef %36, ptr noundef %37, i32 noundef %38, i32 noundef 0, i32 noundef %40)
  %42 = load i8, ptr %13, align 1
  %43 = zext i8 %42 to i32
  %44 = icmp sge i32 %43, 128
  br i1 %44, label %45, label %58

45:                                               ; preds = %26
  %46 = load ptr, ptr %14, align 8
  %47 = icmp ne ptr %46, null
  br i1 %47, label %48, label %58

48:                                               ; preds = %45
  %49 = load ptr, ptr %10, align 8
  %50 = load i32, ptr @hf_instance_id, align 4
  %51 = load ptr, ptr %5, align 8
  %52 = load i32, ptr %11, align 4
  %53 = load ptr, ptr %14, align 8
  %54 = getelementptr inbounds nuw %struct.fec_packet_data, ptr %53, i32 0, i32 0
  %55 = load i8, ptr %54, align 1
  %56 = zext i8 %55 to i32
  %57 = call ptr @proto_tree_add_uint(ptr noundef %49, i32 noundef %50, ptr noundef %51, i32 noundef %52, i32 noundef 0, i32 noundef %56)
  br label %58

58:                                               ; preds = %48, %45, %26
  %59 = load i8, ptr %13, align 1
  %60 = zext i8 %59 to i32
  switch i32 %60, label %206 [
    i32 0, label %61
    i32 1, label %61
    i32 130, label %61
    i32 2, label %90
    i32 128, label %90
    i32 132, label %90
    i32 3, label %117
    i32 4, label %117
    i32 6, label %144
    i32 129, label %172
  ]

61:                                               ; preds = %58, %58, %58
  %62 = load ptr, ptr %10, align 8
  %63 = load i32, ptr @hf_sbn, align 4
  %64 = load ptr, ptr %5, align 8
  %65 = load i32, ptr %11, align 4
  %66 = call ptr @proto_tree_add_item(ptr noundef %62, i32 noundef %63, ptr noundef %64, i32 noundef %65, i32 noundef 2, i32 noundef 0)
  %67 = load ptr, ptr %10, align 8
  %68 = load i32, ptr @hf_esi, align 4
  %69 = load ptr, ptr %5, align 8
  %70 = load i32, ptr %11, align 4
  %71 = add i32 %70, 2
  %72 = call ptr @proto_tree_add_item(ptr noundef %67, i32 noundef %68, ptr noundef %69, i32 noundef %71, i32 noundef 2, i32 noundef 0)
  %73 = load ptr, ptr %6, align 8
  %74 = getelementptr inbounds nuw %struct._packet_info, ptr %73, i32 0, i32 1
  %75 = load ptr, ptr %74, align 8
  %76 = load ptr, ptr %5, align 8
  %77 = load i32, ptr %11, align 4
  %78 = call zeroext i16 @tvb_get_ntohs(ptr noundef %76, i32 noundef %77)
  %79 = zext i16 %78 to i32
  call void (ptr, i32, ptr, ptr, ...) @col_append_sep_fstr(ptr noundef %75, i32 noundef 25, ptr noundef @.str.39, ptr noundef @.str.40, i32 noundef %79)
  %80 = load ptr, ptr %6, align 8
  %81 = getelementptr inbounds nuw %struct._packet_info, ptr %80, i32 0, i32 1
  %82 = load ptr, ptr %81, align 8
  %83 = load ptr, ptr %5, align 8
  %84 = load i32, ptr %11, align 4
  %85 = add i32 %84, 2
  %86 = call zeroext i16 @tvb_get_ntohs(ptr noundef %83, i32 noundef %85)
  %87 = zext i16 %86 to i32
  call void (ptr, i32, ptr, ptr, ...) @col_append_sep_fstr(ptr noundef %82, i32 noundef 25, ptr noundef @.str.39, ptr noundef @.str.41, i32 noundef %87)
  %88 = load i32, ptr %11, align 4
  %89 = add i32 %88, 4
  store i32 %89, ptr %11, align 4
  br label %206

90:                                               ; preds = %58, %58, %58
  %91 = load ptr, ptr %10, align 8
  %92 = load i32, ptr @hf_sbn, align 4
  %93 = load ptr, ptr %5, align 8
  %94 = load i32, ptr %11, align 4
  %95 = call ptr @proto_tree_add_item(ptr noundef %91, i32 noundef %92, ptr noundef %93, i32 noundef %94, i32 noundef 4, i32 noundef 0)
  %96 = load ptr, ptr %10, align 8
  %97 = load i32, ptr @hf_esi, align 4
  %98 = load ptr, ptr %5, align 8
  %99 = load i32, ptr %11, align 4
  %100 = add i32 %99, 4
  %101 = call ptr @proto_tree_add_item(ptr noundef %96, i32 noundef %97, ptr noundef %98, i32 noundef %100, i32 noundef 4, i32 noundef 0)
  %102 = load ptr, ptr %6, align 8
  %103 = getelementptr inbounds nuw %struct._packet_info, ptr %102, i32 0, i32 1
  %104 = load ptr, ptr %103, align 8
  %105 = load ptr, ptr %5, align 8
  %106 = load i32, ptr %11, align 4
  %107 = call i32 @tvb_get_ntohl(ptr noundef %105, i32 noundef %106)
  call void (ptr, i32, ptr, ptr, ...) @col_append_sep_fstr(ptr noundef %104, i32 noundef 25, ptr noundef @.str.39, ptr noundef @.str.40, i32 noundef %107)
  %108 = load ptr, ptr %6, align 8
  %109 = getelementptr inbounds nuw %struct._packet_info, ptr %108, i32 0, i32 1
  %110 = load ptr, ptr %109, align 8
  %111 = load ptr, ptr %5, align 8
  %112 = load i32, ptr %11, align 4
  %113 = add i32 %112, 4
  %114 = call i32 @tvb_get_ntohl(ptr noundef %111, i32 noundef %113)
  call void (ptr, i32, ptr, ptr, ...) @col_append_sep_fstr(ptr noundef %110, i32 noundef 25, ptr noundef @.str.39, ptr noundef @.str.41, i32 noundef %114)
  %115 = load i32, ptr %11, align 4
  %116 = add i32 %115, 8
  store i32 %116, ptr %11, align 4
  br label %206

117:                                              ; preds = %58, %58
  %118 = load ptr, ptr %10, align 8
  %119 = load i32, ptr @hf_sbn_with_mask, align 4
  %120 = load ptr, ptr %5, align 8
  %121 = load i32, ptr %11, align 4
  %122 = call ptr @proto_tree_add_item(ptr noundef %118, i32 noundef %119, ptr noundef %120, i32 noundef %121, i32 noundef 4, i32 noundef 0)
  %123 = load ptr, ptr %10, align 8
  %124 = load i32, ptr @hf_esi_with_mask, align 4
  %125 = load ptr, ptr %5, align 8
  %126 = load i32, ptr %11, align 4
  %127 = call ptr @proto_tree_add_item(ptr noundef %123, i32 noundef %124, ptr noundef %125, i32 noundef %126, i32 noundef 4, i32 noundef 0)
  %128 = load ptr, ptr %6, align 8
  %129 = getelementptr inbounds nuw %struct._packet_info, ptr %128, i32 0, i32 1
  %130 = load ptr, ptr %129, align 8
  %131 = load ptr, ptr %5, align 8
  %132 = load i32, ptr %11, align 4
  %133 = call i32 @tvb_get_ntohl(ptr noundef %131, i32 noundef %132)
  %134 = lshr i32 %133, 20
  call void (ptr, i32, ptr, ptr, ...) @col_append_sep_fstr(ptr noundef %130, i32 noundef 25, ptr noundef @.str.39, ptr noundef @.str.40, i32 noundef %134)
  %135 = load ptr, ptr %6, align 8
  %136 = getelementptr inbounds nuw %struct._packet_info, ptr %135, i32 0, i32 1
  %137 = load ptr, ptr %136, align 8
  %138 = load ptr, ptr %5, align 8
  %139 = load i32, ptr %11, align 4
  %140 = call i32 @tvb_get_ntohl(ptr noundef %138, i32 noundef %139)
  %141 = and i32 %140, 1048575
  call void (ptr, i32, ptr, ptr, ...) @col_append_sep_fstr(ptr noundef %137, i32 noundef 25, ptr noundef @.str.39, ptr noundef @.str.41, i32 noundef %141)
  %142 = load i32, ptr %11, align 4
  %143 = add i32 %142, 4
  store i32 %143, ptr %11, align 4
  br label %206

144:                                              ; preds = %58
  %145 = load ptr, ptr %10, align 8
  %146 = load i32, ptr @hf_sbn, align 4
  %147 = load ptr, ptr %5, align 8
  %148 = load i32, ptr %11, align 4
  %149 = call ptr @proto_tree_add_item(ptr noundef %145, i32 noundef %146, ptr noundef %147, i32 noundef %148, i32 noundef 1, i32 noundef 0)
  %150 = load ptr, ptr %10, align 8
  %151 = load i32, ptr @hf_esi, align 4
  %152 = load ptr, ptr %5, align 8
  %153 = load i32, ptr %11, align 4
  %154 = add i32 %153, 1
  %155 = call ptr @proto_tree_add_item(ptr noundef %150, i32 noundef %151, ptr noundef %152, i32 noundef %154, i32 noundef 3, i32 noundef 0)
  %156 = load ptr, ptr %6, align 8
  %157 = getelementptr inbounds nuw %struct._packet_info, ptr %156, i32 0, i32 1
  %158 = load ptr, ptr %157, align 8
  %159 = load ptr, ptr %5, align 8
  %160 = load i32, ptr %11, align 4
  %161 = call zeroext i8 @tvb_get_uint8(ptr noundef %159, i32 noundef %160)
  %162 = zext i8 %161 to i32
  call void (ptr, i32, ptr, ptr, ...) @col_append_sep_fstr(ptr noundef %158, i32 noundef 25, ptr noundef @.str.39, ptr noundef @.str.40, i32 noundef %162)
  %163 = load ptr, ptr %6, align 8
  %164 = getelementptr inbounds nuw %struct._packet_info, ptr %163, i32 0, i32 1
  %165 = load ptr, ptr %164, align 8
  %166 = load ptr, ptr %5, align 8
  %167 = load i32, ptr %11, align 4
  %168 = add i32 %167, 1
  %169 = call i32 @tvb_get_ntoh24(ptr noundef %166, i32 noundef %168)
  call void (ptr, i32, ptr, ptr, ...) @col_append_sep_fstr(ptr noundef %165, i32 noundef 25, ptr noundef @.str.39, ptr noundef @.str.41, i32 noundef %169)
  %170 = load i32, ptr %11, align 4
  %171 = add i32 %170, 4
  store i32 %171, ptr %11, align 4
  br label %206

172:                                              ; preds = %58
  %173 = load ptr, ptr %10, align 8
  %174 = load i32, ptr @hf_sbn, align 4
  %175 = load ptr, ptr %5, align 8
  %176 = load i32, ptr %11, align 4
  %177 = call ptr @proto_tree_add_item(ptr noundef %173, i32 noundef %174, ptr noundef %175, i32 noundef %176, i32 noundef 4, i32 noundef 0)
  %178 = load ptr, ptr %10, align 8
  %179 = load i32, ptr @hf_sbl, align 4
  %180 = load ptr, ptr %5, align 8
  %181 = load i32, ptr %11, align 4
  %182 = add i32 %181, 4
  %183 = call ptr @proto_tree_add_item(ptr noundef %178, i32 noundef %179, ptr noundef %180, i32 noundef %182, i32 noundef 2, i32 noundef 0)
  %184 = load ptr, ptr %10, align 8
  %185 = load i32, ptr @hf_esi, align 4
  %186 = load ptr, ptr %5, align 8
  %187 = load i32, ptr %11, align 4
  %188 = add i32 %187, 6
  %189 = call ptr @proto_tree_add_item(ptr noundef %184, i32 noundef %185, ptr noundef %186, i32 noundef %188, i32 noundef 2, i32 noundef 0)
  %190 = load ptr, ptr %6, align 8
  %191 = getelementptr inbounds nuw %struct._packet_info, ptr %190, i32 0, i32 1
  %192 = load ptr, ptr %191, align 8
  %193 = load ptr, ptr %5, align 8
  %194 = load i32, ptr %11, align 4
  %195 = call i32 @tvb_get_ntohl(ptr noundef %193, i32 noundef %194)
  call void (ptr, i32, ptr, ptr, ...) @col_append_sep_fstr(ptr noundef %192, i32 noundef 25, ptr noundef @.str.39, ptr noundef @.str.40, i32 noundef %195)
  %196 = load ptr, ptr %6, align 8
  %197 = getelementptr inbounds nuw %struct._packet_info, ptr %196, i32 0, i32 1
  %198 = load ptr, ptr %197, align 8
  %199 = load ptr, ptr %5, align 8
  %200 = load i32, ptr %11, align 4
  %201 = add i32 %200, 6
  %202 = call zeroext i16 @tvb_get_ntohs(ptr noundef %199, i32 noundef %201)
  %203 = zext i16 %202 to i32
  call void (ptr, i32, ptr, ptr, ...) @col_append_sep_fstr(ptr noundef %198, i32 noundef 25, ptr noundef @.str.39, ptr noundef @.str.41, i32 noundef %203)
  %204 = load i32, ptr %11, align 4
  %205 = add i32 %204, 8
  store i32 %205, ptr %11, align 4
  br label %206

206:                                              ; preds = %58, %172, %144, %117, %90, %61
  %207 = load i32, ptr %11, align 4
  call void @llvm.lifetime.end.p0(i64 8, ptr %14) #4
  call void @llvm.lifetime.end.p0(i64 1, ptr %13) #4
  call void @llvm.lifetime.end.p0(i64 8, ptr %12) #4
  call void @llvm.lifetime.end.p0(i64 4, ptr %11) #4
  call void @llvm.lifetime.end.p0(i64 8, ptr %10) #4
  call void @llvm.lifetime.end.p0(i64 8, ptr %9) #4
  ret i32 %207
}