; Function Attrs: null_pointer_is_valid sspstrong uwtable
define internal range(i32 0, 9) i32 @dissect_fec(ptr noundef %0, ptr noundef %1, ptr noundef %2, ptr noundef readonly captures(address_is_null) %3) #0 {
  %5 = tail call ptr @wmem_file_scope()
  %6 = load i32, ptr @proto_rmt_fec, align 4
  %7 = tail call ptr @p_get_proto_data(ptr noundef %5, ptr noundef %1, i32 noundef %6, i32 noundef 0)
  %.not = icmp eq ptr %3, null
  br i1 %.not, label %11, label %8

8:                                                ; preds = %4
  %9 = load i8, ptr %3, align 1
  %10 = zext i8 %9 to i32
  br label %11

11:                                               ; preds = %8, %4
  %.088 = phi i32 [ %10, %8 ], [ 0, %4 ]
  %12 = load i32, ptr @proto_rmt_fec, align 4
  %13 = tail call ptr @proto_tree_add_item(ptr noundef %2, i32 noundef %12, ptr noundef %0, i32 noundef 0, i32 noundef -1, i32 noundef 0)
  %14 = load i32, ptr @ett_main, align 4
  %15 = tail call ptr @proto_item_add_subtree(ptr noundef %13, i32 noundef %14)
  %16 = load i32, ptr @hf_encoding_id, align 4
  %17 = tail call ptr @proto_tree_add_uint(ptr noundef %15, i32 noundef %16, ptr noundef %0, i32 noundef 0, i32 noundef 0, i32 noundef %.088)
  %18 = icmp samesign ugt i32 %.088, 127
  %19 = icmp ne ptr %7, null
  %or.cond = select i1 %18, i1 %19, i1 false
  br i1 %or.cond, label %20, label %25

20:                                               ; preds = %11
  %21 = load i32, ptr @hf_instance_id, align 4
  %22 = load i8, ptr %7, align 1
  %23 = zext i8 %22 to i32
  %24 = tail call ptr @proto_tree_add_uint(ptr noundef %15, i32 noundef %21, ptr noundef %0, i32 noundef 0, i32 noundef 0, i32 noundef %23)
  br label %25

25:                                               ; preds = %20, %11
  %trunc = trunc nuw i32 %.088 to i8
  switch i8 %trunc, label %84 [
    i8 0, label %26
    i8 1, label %26
    i8 -126, label %26
    i8 2, label %38
    i8 -128, label %38
    i8 -124, label %38
    i8 3, label %48
    i8 4, label %48
    i8 6, label %60
    i8 -127, label %71
  ]

26:                                               ; preds = %25, %25, %25
  %27 = load i32, ptr @hf_sbn, align 4
  %28 = tail call ptr @proto_tree_add_item(ptr noundef %15, i32 noundef %27, ptr noundef %0, i32 noundef 0, i32 noundef 2, i32 noundef 0)
  %29 = load i32, ptr @hf_esi, align 4
  %30 = tail call ptr @proto_tree_add_item(ptr noundef %15, i32 noundef %29, ptr noundef %0, i32 noundef 2, i32 noundef 2, i32 noundef 0)
  %31 = getelementptr inbounds nuw i8, ptr %1, i64 8
  %32 = load ptr, ptr %31, align 8
  %33 = tail call zeroext i16 @tvb_get_ntohs(ptr noundef %0, i32 noundef 0)
  %34 = zext i16 %33 to i32
  tail call void (ptr, i32, ptr, ptr, ...) @col_append_sep_fstr(ptr noundef %32, i32 noundef 25, ptr noundef nonnull @.str.39, ptr noundef nonnull @.str.40, i32 noundef %34)
  %35 = load ptr, ptr %31, align 8
  %36 = tail call zeroext i16 @tvb_get_ntohs(ptr noundef %0, i32 noundef 2)
  %37 = zext i16 %36 to i32
  tail call void (ptr, i32, ptr, ptr, ...) @col_append_sep_fstr(ptr noundef %35, i32 noundef 25, ptr noundef nonnull @.str.39, ptr noundef nonnull @.str.41, i32 noundef %37)
  br label %84

38:                                               ; preds = %25, %25, %25
  %39 = load i32, ptr @hf_sbn, align 4
  %40 = tail call ptr @proto_tree_add_item(ptr noundef %15, i32 noundef %39, ptr noundef %0, i32 noundef 0, i32 noundef 4, i32 noundef 0)
  %41 = load i32, ptr @hf_esi, align 4
  %42 = tail call ptr @proto_tree_add_item(ptr noundef %15, i32 noundef %41, ptr noundef %0, i32 noundef 4, i32 noundef 4, i32 noundef 0)
  %43 = getelementptr inbounds nuw i8, ptr %1, i64 8
  %44 = load ptr, ptr %43, align 8
  %45 = tail call i32 @tvb_get_ntohl(ptr noundef %0, i32 noundef 0)
  tail call void (ptr, i32, ptr, ptr, ...) @col_append_sep_fstr(ptr noundef %44, i32 noundef 25, ptr noundef nonnull @.str.39, ptr noundef nonnull @.str.40, i32 noundef %45)
  %46 = load ptr, ptr %43, align 8
  %47 = tail call i32 @tvb_get_ntohl(ptr noundef %0, i32 noundef 4)
  tail call void (ptr, i32, ptr, ptr, ...) @col_append_sep_fstr(ptr noundef %46, i32 noundef 25, ptr noundef nonnull @.str.39, ptr noundef nonnull @.str.41, i32 noundef %47)
  br label %84

48:                                               ; preds = %25, %25
  %49 = load i32, ptr @hf_sbn_with_mask, align 4
  %50 = tail call ptr @proto_tree_add_item(ptr noundef %15, i32 noundef %49, ptr noundef %0, i32 noundef 0, i32 noundef 4, i32 noundef 0)
  %51 = load i32, ptr @hf_esi_with_mask, align 4
  %52 = tail call ptr @proto_tree_add_item(ptr noundef %15, i32 noundef %51, ptr noundef %0, i32 noundef 0, i32 noundef 4, i32 noundef 0)
  %53 = getelementptr inbounds nuw i8, ptr %1, i64 8
  %54 = load ptr, ptr %53, align 8
  %55 = tail call i32 @tvb_get_ntohl(ptr noundef %0, i32 noundef 0)
  %56 = lshr i32 %55, 20
  tail call void (ptr, i32, ptr, ptr, ...) @col_append_sep_fstr(ptr noundef %54, i32 noundef 25, ptr noundef nonnull @.str.39, ptr noundef nonnull @.str.40, i32 noundef %56)
  %57 = load ptr, ptr %53, align 8
  %58 = tail call i32 @tvb_get_ntohl(ptr noundef %0, i32 noundef 0)
  %59 = and i32 %58, 1048575
  tail call void (ptr, i32, ptr, ptr, ...) @col_append_sep_fstr(ptr noundef %57, i32 noundef 25, ptr noundef nonnull @.str.39, ptr noundef nonnull @.str.41, i32 noundef %59)
  br label %84

60:                                               ; preds = %25
  %61 = load i32, ptr @hf_sbn, align 4
  %62 = tail call ptr @proto_tree_add_item(ptr noundef %15, i32 noundef %61, ptr noundef %0, i32 noundef 0, i32 noundef 1, i32 noundef 0)
  %63 = load i32, ptr @hf_esi, align 4
  %64 = tail call ptr @proto_tree_add_item(ptr noundef %15, i32 noundef %63, ptr noundef %0, i32 noundef 1, i32 noundef 3, i32 noundef 0)
  %65 = getelementptr inbounds nuw i8, ptr %1, i64 8
  %66 = load ptr, ptr %65, align 8
  %67 = tail call zeroext i8 @tvb_get_uint8(ptr noundef %0, i32 noundef 0)
  %68 = zext i8 %67 to i32
  tail call void (ptr, i32, ptr, ptr, ...) @col_append_sep_fstr(ptr noundef %66, i32 noundef 25, ptr noundef nonnull @.str.39, ptr noundef nonnull @.str.40, i32 noundef %68)
  %69 = load ptr, ptr %65, align 8
  %70 = tail call i32 @tvb_get_ntoh24(ptr noundef %0, i32 noundef 1)
  tail call void (ptr, i32, ptr, ptr, ...) @col_append_sep_fstr(ptr noundef %69, i32 noundef 25, ptr noundef nonnull @.str.39, ptr noundef nonnull @.str.41, i32 noundef %70)
  br label %84

71:                                               ; preds = %25
  %72 = load i32, ptr @hf_sbn, align 4
  %73 = tail call ptr @proto_tree_add_item(ptr noundef %15, i32 noundef %72, ptr noundef %0, i32 noundef 0, i32 noundef 4, i32 noundef 0)
  %74 = load i32, ptr @hf_sbl, align 4
  %75 = tail call ptr @proto_tree_add_item(ptr noundef %15, i32 noundef %74, ptr noundef %0, i32 noundef 4, i32 noundef 2, i32 noundef 0)
  %76 = load i32, ptr @hf_esi, align 4
  %77 = tail call ptr @proto_tree_add_item(ptr noundef %15, i32 noundef %76, ptr noundef %0, i32 noundef 6, i32 noundef 2, i32 noundef 0)
  %78 = getelementptr inbounds nuw i8, ptr %1, i64 8
  %79 = load ptr, ptr %78, align 8
  %80 = tail call i32 @tvb_get_ntohl(ptr noundef %0, i32 noundef 0)
  tail call void (ptr, i32, ptr, ptr, ...) @col_append_sep_fstr(ptr noundef %79, i32 noundef 25, ptr noundef nonnull @.str.39, ptr noundef nonnull @.str.40, i32 noundef %80)
  %81 = load ptr, ptr %78, align 8
  %82 = tail call zeroext i16 @tvb_get_ntohs(ptr noundef %0, i32 noundef 6)
  %83 = zext i16 %82 to i32
  tail call void (ptr, i32, ptr, ptr, ...) @col_append_sep_fstr(ptr noundef %81, i32 noundef 25, ptr noundef nonnull @.str.39, ptr noundef nonnull @.str.41, i32 noundef %83)
  br label %84

84:                                               ; preds = %71, %60, %48, %38, %26, %25
  %.0 = phi i32 [ 0, %25 ], [ 8, %71 ], [ 4, %60 ], [ 4, %48 ], [ 8, %38 ], [ 4, %26 ]
  ret i32 %.0
}